	.file	"my_functions.c"
	.text
	.def	_multiply;	.scl	3;	.type	32;	.endef
_multiply:
LFB0:
	.cfi_startproc
	pushl	%ebp
	.cfi_def_cfa_offset 8
	.cfi_offset 5, -8
	movl	%esp, %ebp
	.cfi_def_cfa_register 5
	movl	8(%ebp), %eax
	imull	12(%ebp), %eax
	popl	%ebp
	.cfi_restore 5
	.cfi_def_cfa 4, 4
	ret
	.cfi_endproc
LFE0:
	.globl	_status
	.bss
	.align 4
_status:
	.space 4
	.text
	.globl	_add
	.def	_add;	.scl	2;	.type	32;	.endef
_add:
LFB15:
	.cfi_startproc
	pushl	%ebp
	.cfi_def_cfa_offset 8
	.cfi_offset 5, -8
	movl	%esp, %ebp
	.cfi_def_cfa_register 5
	movl	8(%ebp), %edx
	movl	12(%ebp), %eax
	addl	%edx, %eax
	popl	%ebp
	.cfi_restore 5
	.cfi_def_cfa 4, 4
	ret
	.cfi_endproc
LFE15:
	.section .rdata,"dr"
LC0:
	.ascii "Address = %p, Value = %d\12\0"
	.text
	.globl	_print_status
	.def	_print_status;	.scl	2;	.type	32;	.endef
_print_status:
LFB16:
	.cfi_startproc
	pushl	%ebp
	.cfi_def_cfa_offset 8
	.cfi_offset 5, -8
	movl	%esp, %ebp
	.cfi_def_cfa_register 5
	subl	$24, %esp
	movl	_status, %eax
	movl	%eax, 8(%esp)
	movl	$_status, 4(%esp)
	movl	$LC0, (%esp)
	call	_printf
	nop
	leave
	.cfi_restore 5
	.cfi_def_cfa 4, 4
	ret
	.cfi_endproc
LFE16:
	.section .rdata,"dr"
LC1:
	.ascii "%p\12\0"
	.text
	.globl	_print_address
	.def	_print_address;	.scl	2;	.type	32;	.endef
_print_address:
LFB17:
	.cfi_startproc
	pushl	%ebp
	.cfi_def_cfa_offset 8
	.cfi_offset 5, -8
	movl	%esp, %ebp
	.cfi_def_cfa_register 5
	subl	$24, %esp
	movl	$_multiply, 4(%esp)
	movl	$LC1, (%esp)
	call	_printf
	nop
	leave
	.cfi_restore 5
	.cfi_def_cfa 4, 4
	ret
	.cfi_endproc
LFE17:
	.ident	"GCC: (i686-posix-dwarf-rev0, Built by MinGW-W64 project) 8.1.0"
	.def	_printf;	.scl	2;	.type	32;	.endef
